; Function Attrs: mustprogress uwtable
define void @_ZNK9grpc_core8Activity8DebugTagB5cxx11Ev(ptr dead_on_unwind noalias writable sret(%"class.std::__cxx11::basic_string") align 8 %0, ptr noundef nonnull align 8 dereferenceable(8) %1) unnamed_addr #6 align 2 personality ptr @__gxx_personality_v0 {
  %3 = alloca [1 x %"class.absl::lts_20240722::str_format_internal::FormatArgImpl"], align 8
  call void @llvm.lifetime.start.p0(i64 16, ptr nonnull %3) #26, !noalias !43
  store ptr %1, ptr %3, align 8, !tbaa !12, !noalias !43
  %4 = getelementptr inbounds nuw i8, ptr %3, i64 8
  store ptr @_ZN4absl12lts_2024072219str_format_internal13FormatArgImpl8DispatchINS1_7VoidPtrEEEbNS2_4DataENS1_24FormatConversionSpecImplEPv, ptr %4, align 8, !tbaa !46, !noalias !43
  call void @_ZN4absl12lts_2024072219str_format_internal10FormatPackB5cxx11ENS1_21UntypedFormatSpecImplENS0_4SpanIKNS1_13FormatArgImplEEE(ptr dead_on_unwind writable sret(%"class.std::__cxx11::basic_string") align 8 %0, ptr nonnull @.str.1, i64 12, ptr nonnull %3, i64 1)
  call void @llvm.lifetime.end.p0(i64 16, ptr nonnull %3) #26, !noalias !43
  ret void
}